; Function Attrs: mustprogress uwtable
define hidden void @_ZN4cvc58internal20FloatingPointLiteralC2ERKNS0_17FloatingPointSizeERKNS0_12RoundingModeERKNS0_9BitVectorEb(ptr noundef nonnull align 8 dereferenceable(64) %0, ptr noundef nonnull align 4 dereferenceable(8) %1, ptr noundef nonnull readonly align 4 captures(none) dereferenceable(4) %2, ptr noundef nonnull align 8 dereferenceable(24) %3, i1 noundef zeroext %4) unnamed_addr #4 align 2 personality ptr @__gxx_personality_v0 {
  %6 = alloca %"class.cvc5::internal::FloatingPointSize", align 4
  %7 = alloca i32, align 4
  %8 = alloca %"class.cvc5::internal::symfpuLiteral::wrappedBitVector", align 8
  %9 = alloca i32, align 4
  %10 = alloca %"class.cvc5::internal::FloatingPointSize", align 4
  %11 = alloca i32, align 4
  %12 = alloca %"class.cvc5::internal::symfpuLiteral::wrappedBitVector.0", align 8
  %13 = alloca i32, align 4
  tail call void @_ZN4cvc58internal17FloatingPointSizeC1ERKS1_(ptr noundef nonnull align 4 dereferenceable(8) %0, ptr noundef nonnull align 4 dereferenceable(8) %1)
  %14 = getelementptr inbounds nuw i8, ptr %0, i64 8
  call void @llvm.lifetime.start.p0(i64 8, ptr nonnull %6) #16
  call void @llvm.lifetime.start.p0(i64 4, ptr nonnull %7) #16
  call void @llvm.lifetime.start.p0(i64 4, ptr nonnull %9) #16
  call void @llvm.lifetime.start.p0(i64 8, ptr nonnull %10) #16
  call void @llvm.lifetime.start.p0(i64 4, ptr nonnull %11) #16
  call void @llvm.lifetime.start.p0(i64 4, ptr nonnull %13) #16
  br i1 %4, label %15, label %20

15:                                               ; preds = %5
  call void @_ZN4cvc58internal17FloatingPointSizeC1ERKS1_(ptr noundef nonnull align 4 dereferenceable(8) %6, ptr noundef nonnull align 4 dereferenceable(8) %1)
  %16 = load i32, ptr %2, align 4, !tbaa !34
  store i32 %16, ptr %7, align 4, !tbaa !34
  call void @llvm.lifetime.start.p0(i64 24, ptr nonnull %8) #16
  %17 = load i32, ptr %3, align 8, !tbaa !9
  store i32 %17, ptr %8, align 8, !tbaa !9
  %18 = getelementptr inbounds nuw i8, ptr %8, i64 8
  %19 = getelementptr inbounds nuw i8, ptr %3, i64 8
  call void @__gmpz_init_set(ptr noundef nonnull align 8 dereferenceable(16) %18, ptr noundef nonnull align 8 dereferenceable(16) %19)
  store i32 0, ptr %9, align 4, !tbaa !27
  invoke void @_ZN6symfpu17convertSBVToFloatIN4cvc58internal13symfpuLiteral6traitsEEENS_13unpackedFloatIT_EERKNS6_3fptERKNS6_2rmERKNS6_3sbvERKNS6_3bwtE(ptr dead_on_unwind nonnull writable sret(%"class.symfpu::unpackedFloat") align 8 %14, ptr noundef nonnull align 4 dereferenceable(8) %6, ptr noundef nonnull align 4 dereferenceable(4) %7, ptr noundef nonnull align 8 dereferenceable(24) %8, ptr noundef nonnull align 4 dereferenceable(4) %9)
          to label %.critedge31 unwind label %42

20:                                               ; preds = %5
  invoke void @_ZN4cvc58internal17FloatingPointSizeC1ERKS1_(ptr noundef nonnull align 4 dereferenceable(8) %10, ptr noundef nonnull align 4 dereferenceable(8) %1)
          to label %21 unwind label %32

21:                                               ; preds = %20
  %22 = load i32, ptr %2, align 4, !tbaa !34
  store i32 %22, ptr %11, align 4, !tbaa !34
  call void @llvm.lifetime.start.p0(i64 24, ptr nonnull %12) #16
  %23 = load i32, ptr %3, align 8, !tbaa !9
  store i32 %23, ptr %12, align 8, !tbaa !9
  %24 = getelementptr inbounds nuw i8, ptr %12, i64 8
  %25 = getelementptr inbounds nuw i8, ptr %3, i64 8
  invoke void @__gmpz_init_set(ptr noundef nonnull align 8 dereferenceable(16) %24, ptr noundef nonnull align 8 dereferenceable(16) %25)
          to label %_ZN4cvc58internal13symfpuLiteral16wrappedBitVectorILb0EEC2ERKNS0_9BitVectorE.exit unwind label %34

_ZN4cvc58internal13symfpuLiteral16wrappedBitVectorILb0EEC2ERKNS0_9BitVectorE.exit: ; preds = %21
  store i32 0, ptr %13, align 4, !tbaa !27
  invoke void @_ZN6symfpu17convertUBVToFloatIN4cvc58internal13symfpuLiteral6traitsEEENS_13unpackedFloatIT_EERKNS6_3fptERKNS6_2rmERKNS6_3ubvERKNS6_3bwtE(ptr dead_on_unwind nonnull writable sret(%"class.symfpu::unpackedFloat") align 8 %14, ptr noundef nonnull align 4 dereferenceable(8) %10, ptr noundef nonnull align 4 dereferenceable(4) %11, ptr noundef nonnull align 8 dereferenceable(24) %12, ptr noundef nonnull align 4 dereferenceable(4) %13)
          to label %.critedge unwind label %36

.critedge:                                        ; preds = %_ZN4cvc58internal13symfpuLiteral16wrappedBitVectorILb0EEC2ERKNS0_9BitVectorE.exit
  call void @llvm.lifetime.end.p0(i64 4, ptr nonnull %13) #16
  invoke void @__gmpz_clear(ptr noundef nonnull align 8 dereferenceable(16) %24)
          to label %_ZN4cvc58internal9BitVectorD2Ev.exit unwind label %26

26:                                               ; preds = %.critedge
  %27 = landingpad { ptr, i32 }
          catch ptr null
  %28 = extractvalue { ptr, i32 } %27, 0
  call void @__clang_call_terminate(ptr %28) #17
  unreachable

_ZN4cvc58internal9BitVectorD2Ev.exit:             ; preds = %.critedge
  call void @llvm.lifetime.end.p0(i64 24, ptr nonnull %12) #16
  call void @llvm.lifetime.end.p0(i64 4, ptr nonnull %11) #16
  call void @llvm.lifetime.end.p0(i64 8, ptr nonnull %10) #16
  call void @llvm.lifetime.end.p0(i64 4, ptr nonnull %9) #16
  br label %.critedge33

.critedge31:                                      ; preds = %15
  call void @llvm.lifetime.end.p0(i64 4, ptr nonnull %13) #16
  call void @llvm.lifetime.end.p0(i64 4, ptr nonnull %11) #16
  call void @llvm.lifetime.end.p0(i64 8, ptr nonnull %10) #16
  call void @llvm.lifetime.end.p0(i64 4, ptr nonnull %9) #16
  invoke void @__gmpz_clear(ptr noundef nonnull align 8 dereferenceable(16) %18)
          to label %_ZN4cvc58internal9BitVectorD2Ev.exit38 unwind label %29

29:                                               ; preds = %.critedge31
  %30 = landingpad { ptr, i32 }
          catch ptr null
  %31 = extractvalue { ptr, i32 } %30, 0
  call void @__clang_call_terminate(ptr %31) #17
  unreachable

_ZN4cvc58internal9BitVectorD2Ev.exit38:           ; preds = %.critedge31
  call void @llvm.lifetime.end.p0(i64 24, ptr nonnull %8) #16
  br label %.critedge33

.critedge33:                                      ; preds = %_ZN4cvc58internal9BitVectorD2Ev.exit, %_ZN4cvc58internal9BitVectorD2Ev.exit38
  call void @llvm.lifetime.end.p0(i64 4, ptr nonnull %7) #16
  call void @llvm.lifetime.end.p0(i64 8, ptr nonnull %6) #16
  ret void

32:                                               ; preds = %20
  %33 = landingpad { ptr, i32 }
          cleanup
  br label %41

34:                                               ; preds = %21
  %35 = landingpad { ptr, i32 }
          cleanup
  br label %_ZN4cvc58internal9BitVectorD2Ev.exit39

36:                                               ; preds = %_ZN4cvc58internal13symfpuLiteral16wrappedBitVectorILb0EEC2ERKNS0_9BitVectorE.exit
  %37 = landingpad { ptr, i32 }
          cleanup
  call void @llvm.lifetime.end.p0(i64 4, ptr nonnull %13) #16
  invoke void @__gmpz_clear(ptr noundef nonnull align 8 dereferenceable(16) %24)
          to label %_ZN4cvc58internal9BitVectorD2Ev.exit39 unwind label %38

38:                                               ; preds = %36
  %39 = landingpad { ptr, i32 }
          catch ptr null
  %40 = extractvalue { ptr, i32 } %39, 0
  call void @__clang_call_terminate(ptr %40) #17
  unreachable

_ZN4cvc58internal9BitVectorD2Ev.exit39:           ; preds = %36, %34
  %.pn = phi { ptr, i32 } [ %35, %34 ], [ %37, %36 ]
  call void @llvm.lifetime.end.p0(i64 24, ptr nonnull %12) #16
  call void @llvm.lifetime.end.p0(i64 4, ptr nonnull %11) #16
  br label %41

41:                                               ; preds = %32, %_ZN4cvc58internal9BitVectorD2Ev.exit39
  %.pn.pn = phi { ptr, i32 } [ %.pn, %_ZN4cvc58internal9BitVectorD2Ev.exit39 ], [ %33, %32 ]
  call void @llvm.lifetime.end.p0(i64 8, ptr nonnull %10) #16
  call void @llvm.lifetime.end.p0(i64 4, ptr nonnull %9) #16
  br label %.critedge35

42:                                               ; preds = %15
  %43 = landingpad { ptr, i32 }
          cleanup
  call void @llvm.lifetime.end.p0(i64 4, ptr nonnull %9) #16
  invoke void @__gmpz_clear(ptr noundef nonnull align 8 dereferenceable(16) %18)
          to label %_ZN4cvc58internal9BitVectorD2Ev.exit40 unwind label %44

44:                                               ; preds = %42
  %45 = landingpad { ptr, i32 }
          catch ptr null
  %46 = extractvalue { ptr, i32 } %45, 0
  call void @__clang_call_terminate(ptr %46) #17
  unreachable

_ZN4cvc58internal9BitVectorD2Ev.exit40:           ; preds = %42
  call void @llvm.lifetime.end.p0(i64 24, ptr nonnull %8) #16
  br label %.critedge35

.critedge35:                                      ; preds = %41, %_ZN4cvc58internal9BitVectorD2Ev.exit40
  %.pn2943 = phi { ptr, i32 } [ %.pn.pn, %41 ], [ %43, %_ZN4cvc58internal9BitVectorD2Ev.exit40 ]
  call void @llvm.lifetime.end.p0(i64 4, ptr nonnull %7) #16
  call void @llvm.lifetime.end.p0(i64 8, ptr nonnull %6) #16
  resume { ptr, i32 } %.pn2943
}